target datalayout = "e-m:e-p270:32:32-p271:32:32-p272:64:64-i64:64-i128:128-f80:128-n8:16:32:64-S128"
target triple = "x86_64-pc-linux-gnu"

%union.pthread_mutex_t = type { %struct.__pthread_mutex_s }
%struct.__pthread_mutex_s = type { i32, i32, i32, i32, i32, i16, i16, %struct.__pthread_internal_list }
%struct.__pthread_internal_list = type { ptr, ptr }
%struct._priv_exr_part_t = type { i32, i32, %struct.exr_attribute_list, ptr, ptr, ptr, ptr, ptr, ptr, ptr, ptr, ptr, ptr, ptr, ptr, ptr, ptr, %struct.exr_attr_box2i_t, %struct.exr_attr_box2i_t, i32, i32, i32, float, i32, i32, ptr, ptr, ptr, ptr, i64, i16, i16, i32, i64, i64 }
%struct.exr_attribute_list = type { i32, i32, ptr, ptr }
%struct.exr_attr_box2i_t = type { %struct.exr_attr_v2i_t, %struct.exr_attr_v2i_t }
%struct.exr_attr_v2i_t = type { i32, i32 }
%struct._priv_exr_context_t = type { i8, i8, i8, i8, i8, i8, i8, i8, %struct.exr_attr_string_t, %struct.exr_attr_string_t, ptr, ptr, ptr, ptr, ptr, ptr, ptr, ptr, i32, i32, i32, i32, i32, float, ptr, ptr, ptr, i64, ptr, ptr, i64, i32, i32, i32, i32, %struct._priv_exr_part_t, ptr, ptr, %struct.exr_attribute_list, %union.pthread_mutex_t, i8, i8, [2 x i8], i32 }
%struct.exr_attr_string_t = type { i32, i32, ptr }

@default_error_handler.sMutex = internal global %union.pthread_mutex_t zeroinitializer, align 8
@stderr = external global ptr, align 8
@.str.1 = private unnamed_addr constant [13 x i8] c"%s: (%s) %s\0A\00", align 1
@.str.2 = private unnamed_addr constant [23 x i8] c"Context 0x%p: (%s) %s\0A\00", align 1
@.str.3 = private unnamed_addr constant [13 x i8] c"<ERROR>: %s\0A\00", align 1

; Function Attrs: nounwind uwtable
define internal void @default_error_handler(ptr noundef %0, i32 noundef %1, ptr noundef %2) #0 {
  %4 = alloca ptr, align 8
  %5 = alloca i32, align 4
  %6 = alloca ptr, align 8
  store ptr %0, ptr %4, align 8, !tbaa !3
  store i32 %1, ptr %5, align 4, !tbaa !26
  store ptr %2, ptr %6, align 8, !tbaa !59
  %7 = call i32 @pthread_mutex_lock(ptr noundef @default_error_handler.sMutex) #7
  %8 = load ptr, ptr %4, align 8, !tbaa !3
  %9 = icmp ne ptr %8, null
  br i1 %9, label %10, label %34

10:                                               ; preds = %3
  %11 = load ptr, ptr %4, align 8, !tbaa !3
  %12 = getelementptr inbounds nuw %struct._priv_exr_context_t, ptr %11, i32 0, i32 8
  %13 = getelementptr inbounds nuw %struct.exr_attr_string_t, ptr %12, i32 0, i32 2
  %14 = load ptr, ptr %13, align 8, !tbaa !97
  %15 = icmp ne ptr %14, null
  br i1 %15, label %16, label %26

16:                                               ; preds = %10
  %17 = load ptr, ptr @stderr, align 8, !tbaa !98
  %18 = load ptr, ptr %4, align 8, !tbaa !3
  %19 = getelementptr inbounds nuw %struct._priv_exr_context_t, ptr %18, i32 0, i32 8
  %20 = getelementptr inbounds nuw %struct.exr_attr_string_t, ptr %19, i32 0, i32 2
  %21 = load ptr, ptr %20, align 8, !tbaa !97
  %22 = load i32, ptr %5, align 4, !tbaa !26
  %23 = call ptr @exr_get_error_code_as_string(i32 noundef %22)
  %24 = load ptr, ptr %6, align 8, !tbaa !59
  %25 = call i32 (ptr, ptr, ...) @fprintf(ptr noundef %17, ptr noundef @.str.1, ptr noundef %21, ptr noundef %23, ptr noundef %24) #7
  br label %33

26:                                               ; preds = %10
  %27 = load ptr, ptr @stderr, align 8, !tbaa !98
  %28 = load ptr, ptr %4, align 8, !tbaa !3
  %29 = load i32, ptr %5, align 4, !tbaa !26
  %30 = call ptr @exr_get_error_code_as_string(i32 noundef %29)
  %31 = load ptr, ptr %6, align 8, !tbaa !59
  %32 = call i32 (ptr, ptr, ...) @fprintf(ptr noundef %27, ptr noundef @.str.2, ptr noundef %28, ptr noundef %30, ptr noundef %31) #7
  br label %33

33:                                               ; preds = %26, %16
  br label %38

34:                                               ; preds = %3
  %35 = load ptr, ptr @stderr, align 8, !tbaa !98
  %36 = load ptr, ptr %6, align 8, !tbaa !59
  %37 = call i32 (ptr, ptr, ...) @fprintf(ptr noundef %35, ptr noundef @.str.3, ptr noundef %36) #7
  br label %38

38:                                               ; preds = %34, %33
  %39 = load ptr, ptr @stderr, align 8, !tbaa !98
  %40 = call i32 @fflush(ptr noundef %39)
  %41 = call i32 @pthread_mutex_unlock(ptr noundef @default_error_handler.sMutex) #7
  ret void
}