; Function Attrs: cold nounwind uwtable
define internal void @default_error_handler(ptr noundef %0, i32 noundef %1, ptr noundef %2) #8 {
  %4 = tail call i32 @pthread_mutex_lock(ptr noundef nonnull @default_error_handler.sMutex) #12
  %.not = icmp eq ptr %0, null
  br i1 %.not, label %14, label %5

5:                                                ; preds = %3
  %6 = getelementptr inbounds nuw i8, ptr %0, i64 16
  %7 = load ptr, ptr %6, align 8, !tbaa !89
  %.not9 = icmp eq ptr %7, null
  %8 = load ptr, ptr @stderr, align 8, !tbaa !90
  %9 = tail call ptr @exr_get_error_code_as_string(i32 noundef %1) #12
  br i1 %.not9, label %12, label %10

10:                                               ; preds = %5
  %11 = tail call i32 (ptr, ptr, ...) @fprintf(ptr noundef %8, ptr noundef nonnull @.str.1, ptr noundef nonnull %7, ptr noundef %9, ptr noundef %2) #13
  br label %17

12:                                               ; preds = %5
  %13 = tail call i32 (ptr, ptr, ...) @fprintf(ptr noundef %8, ptr noundef nonnull @.str.2, ptr noundef nonnull %0, ptr noundef %9, ptr noundef %2) #13
  br label %17

14:                                               ; preds = %3
  %15 = load ptr, ptr @stderr, align 8, !tbaa !90
  %16 = tail call i32 (ptr, ptr, ...) @fprintf(ptr noundef %15, ptr noundef nonnull @.str.3, ptr noundef %2) #13
  br label %17

17:                                               ; preds = %10, %12, %14
  %18 = load ptr, ptr @stderr, align 8, !tbaa !90
  %19 = tail call i32 @fflush(ptr noundef %18)
  %20 = tail call i32 @pthread_mutex_unlock(ptr noundef nonnull @default_error_handler.sMutex) #12
  ret void
}